; Function Attrs: nounwind uwtable
define internal range(i32 0, 2) i32 @stbiw__outfile(ptr noundef nonnull %0, i32 %1, i32 %2, i32 noundef %3, i32 noundef %4, i32 noundef %5, i32 noundef range(i32 0, 2) %6, ptr noundef readonly captures(none) %7, i32 noundef range(i32 0, 2) %8, i32 noundef range(i32 0, 4) %9, ptr noundef readonly captures(none) %10, ...) unnamed_addr #4 {
  %12 = alloca i32, align 4
  %13 = alloca [1 x %struct.__va_list_tag], align 16
  %14 = or i32 %4, %3
  %or.cond.not = icmp sgt i32 %14, -1
  br i1 %or.cond.not, label %15, label %46

15:                                               ; preds = %11
  call void @llvm.lifetime.start.p0(i64 24, ptr nonnull %13) #54
  call void @llvm.va_start.p0(ptr nonnull %13)
  call fastcc void @stbiw__writefv(ptr noundef %0, ptr noundef %10, ptr noundef %13)
  call void @llvm.va_end.p0(ptr nonnull %13)
  call void @llvm.lifetime.start.p0(i64 4, ptr nonnull %12) #54
  store i32 0, ptr %12, align 4
  %16 = icmp eq i32 %4, 0
  br i1 %16, label %stbiw__write_pixels.exit, label %17

17:                                               ; preds = %15
  %18 = load i32, ptr @stbi__flip_vertically_on_write, align 4
  %.not.i = icmp eq i32 %18, 0
  %spec.select.i = select i1 %.not.i, i32 -1, i32 1
  %19 = add nsw i32 %4, -1
  %.027.i = select i1 %.not.i, i32 %19, i32 0
  %.026.i = select i1 %.not.i, i32 -1, i32 %4
  %.not34.i = icmp eq i32 %3, 0
  %20 = getelementptr inbounds nuw i8, ptr %0, i64 80
  %21 = getelementptr inbounds nuw i8, ptr %0, i64 8
  %22 = getelementptr inbounds nuw i8, ptr %0, i64 16
  br i1 %.not34.i, label %.preheader.i, label %.preheader.us.preheader.i

.preheader.us.preheader.i:                        ; preds = %17
  %23 = sext i32 %5 to i64
  %24 = zext nneg i32 %.027.i to i64
  %25 = sext i32 %spec.select.i to i64
  %26 = zext nneg i32 %3 to i64
  br label %.preheader.us.i

.preheader.us.i:                                  ; preds = %stbiw__write_flush.exit.us.i, %.preheader.us.preheader.i
  %indvars.iv37.i = phi i64 [ %24, %.preheader.us.preheader.i ], [ %indvars.iv.next38.i, %stbiw__write_flush.exit.us.i ]
  %27 = mul nsw i64 %indvars.iv37.i, %26
  br label %34

28:                                               ; preds = %._crit_edge.us.i
  %29 = load ptr, ptr %0, align 8
  %30 = load ptr, ptr %21, align 8
  call void %29(ptr noundef %30, ptr noundef nonnull %22, i32 noundef %38) #54
  store i32 0, ptr %20, align 8
  br label %stbiw__write_flush.exit.us.i

stbiw__write_flush.exit.us.i:                     ; preds = %._crit_edge.us.i, %28
  %31 = load ptr, ptr %0, align 8
  %32 = load ptr, ptr %21, align 8
  call void %31(ptr noundef %32, ptr noundef nonnull %12, i32 noundef range(i32 0, 4) %9) #54
  %indvars.iv.next38.i = add nsw i64 %indvars.iv37.i, %25
  %33 = trunc nsw i64 %indvars.iv.next38.i to i32
  %.not31.us.i = icmp eq i32 %.026.i, %33
  br i1 %.not31.us.i, label %stbiw__write_pixels.exit, label %.preheader.us.i

34:                                               ; preds = %34, %.preheader.us.i
  %indvars.iv.i = phi i64 [ 0, %.preheader.us.i ], [ %indvars.iv.next.i, %34 ]
  %35 = add nsw i64 %indvars.iv.i, %27
  %36 = mul nsw i64 %35, %23
  %37 = getelementptr inbounds i8, ptr %7, i64 %36
  call fastcc void @stbiw__write_pixel(ptr noundef nonnull %0, i32 noundef %5, i32 noundef range(i32 0, 2) %8, i32 noundef range(i32 0, 2) %6, ptr noundef readonly %37)
  %indvars.iv.next.i = add nuw nsw i64 %indvars.iv.i, 1
  %exitcond.not.i = icmp eq i64 %indvars.iv.next.i, %26
  br i1 %exitcond.not.i, label %._crit_edge.us.i, label %34

._crit_edge.us.i:                                 ; preds = %34
  %38 = load i32, ptr %20, align 8
  %.not.i.us.i = icmp eq i32 %38, 0
  br i1 %.not.i.us.i, label %stbiw__write_flush.exit.us.i, label %28

.preheader.i:                                     ; preds = %17, %stbiw__write_flush.exit.i
  %.133.i = phi i32 [ %45, %stbiw__write_flush.exit.i ], [ %.027.i, %17 ]
  %39 = load i32, ptr %20, align 8
  %.not.i.i = icmp eq i32 %39, 0
  br i1 %.not.i.i, label %stbiw__write_flush.exit.i, label %40

40:                                               ; preds = %.preheader.i
  %41 = load ptr, ptr %0, align 8
  %42 = load ptr, ptr %21, align 8
  call void %41(ptr noundef %42, ptr noundef nonnull %22, i32 noundef %39) #54
  store i32 0, ptr %20, align 8
  br label %stbiw__write_flush.exit.i

stbiw__write_flush.exit.i:                        ; preds = %40, %.preheader.i
  %43 = load ptr, ptr %0, align 8
  %44 = load ptr, ptr %21, align 8
  call void %43(ptr noundef %44, ptr noundef nonnull %12, i32 noundef range(i32 0, 4) %9) #54
  %45 = add nsw i32 %.133.i, %spec.select.i
  %.not31.i = icmp eq i32 %45, %.026.i
  br i1 %.not31.i, label %stbiw__write_pixels.exit, label %.preheader.i

stbiw__write_pixels.exit:                         ; preds = %stbiw__write_flush.exit.us.i, %stbiw__write_flush.exit.i, %15
  call void @llvm.lifetime.end.p0(i64 4, ptr nonnull %12) #54
  call void @llvm.lifetime.end.p0(i64 24, ptr nonnull %13) #54
  br label %46

46:                                               ; preds = %11, %stbiw__write_pixels.exit
  %.0 = phi i32 [ 1, %stbiw__write_pixels.exit ], [ 0, %11 ]
  ret i32 %.0
}